target datalayout = "e-m:e-p270:32:32-p271:32:32-p272:64:64-i64:64-i128:128-f80:128-n8:16:32:64-S128"
target triple = "x86_64-pc-linux-gnu"

%struct.jv = type { i8, i8, i16, i32, %union.anon }
%union.anon = type { ptr }

@.str.217 = private unnamed_addr constant [6 x i8] c"break\00", align 1

; Function Attrs: nounwind uwtable
define internal i32 @jv_is_valid(i64 %0, ptr %1) #0 {
  %3 = alloca %struct.jv, align 8
  %4 = getelementptr inbounds nuw { i64, ptr }, ptr %3, i32 0, i32 0
  store i64 %0, ptr %4, align 8
  %5 = getelementptr inbounds nuw { i64, ptr }, ptr %3, i32 0, i32 1
  store ptr %1, ptr %5, align 8
  %6 = getelementptr inbounds nuw { i64, ptr }, ptr %3, i32 0, i32 0
  %7 = load i64, ptr %6, align 8
  %8 = getelementptr inbounds nuw { i64, ptr }, ptr %3, i32 0, i32 1
  %9 = load ptr, ptr %8, align 8
  %10 = call i32 @jv_get_kind(i64 %7, ptr %9)
  %11 = icmp ne i32 %10, 0
  %12 = zext i1 %11 to i32
  ret i32 %12
}

; Function Attrs: nounwind uwtable
define internal { i64, ptr } @f_input(ptr noundef %0, i64 %1, ptr %2) #0 {
  %4 = alloca %struct.jv, align 8
  %5 = alloca %struct.jv, align 8
  %6 = alloca ptr, align 8
  %7 = alloca ptr, align 8
  %8 = alloca ptr, align 8
  %9 = alloca %struct.jv, align 8
  %10 = alloca i32, align 4
  %11 = alloca %struct.jv, align 8
  %12 = alloca %struct.jv, align 8
  %13 = alloca %struct.jv, align 8
  %14 = getelementptr inbounds nuw { i64, ptr }, ptr %5, i32 0, i32 0
  store i64 %1, ptr %14, align 8
  %15 = getelementptr inbounds nuw { i64, ptr }, ptr %5, i32 0, i32 1
  store ptr %2, ptr %15, align 8
  store ptr %0, ptr %6, align 8, !tbaa !25
  %16 = getelementptr inbounds nuw { i64, ptr }, ptr %5, i32 0, i32 0
  %17 = load i64, ptr %16, align 8
  %18 = getelementptr inbounds nuw { i64, ptr }, ptr %5, i32 0, i32 1
  %19 = load ptr, ptr %18, align 8
  call void @jv_free(i64 %17, ptr %19)
  call void @llvm.lifetime.start.p0(i64 8, ptr %7) #10
  call void @llvm.lifetime.start.p0(i64 8, ptr %8) #10
  %20 = load ptr, ptr %6, align 8, !tbaa !25
  call void @jq_get_input_cb(ptr noundef %20, ptr noundef %7, ptr noundef %8)
  %21 = load ptr, ptr %7, align 8, !tbaa !76
  %22 = icmp eq ptr %21, null
  br i1 %22, label %23, label %38

23:                                               ; preds = %3
  %24 = call { i64, ptr } @jv_string(ptr noundef @.str.217)
  %25 = getelementptr inbounds nuw { i64, ptr }, ptr %9, i32 0, i32 0
  %26 = extractvalue { i64, ptr } %24, 0
  store i64 %26, ptr %25, align 8
  %27 = getelementptr inbounds nuw { i64, ptr }, ptr %9, i32 0, i32 1
  %28 = extractvalue { i64, ptr } %24, 1
  store ptr %28, ptr %27, align 8
  %29 = getelementptr inbounds nuw { i64, ptr }, ptr %9, i32 0, i32 0
  %30 = load i64, ptr %29, align 8
  %31 = getelementptr inbounds nuw { i64, ptr }, ptr %9, i32 0, i32 1
  %32 = load ptr, ptr %31, align 8
  %33 = call { i64, ptr } @jv_invalid_with_msg(i64 %30, ptr %32)
  %34 = getelementptr inbounds nuw { i64, ptr }, ptr %4, i32 0, i32 0
  %35 = extractvalue { i64, ptr } %33, 0
  store i64 %35, ptr %34, align 8
  %36 = getelementptr inbounds nuw { i64, ptr }, ptr %4, i32 0, i32 1
  %37 = extractvalue { i64, ptr } %33, 1
  store ptr %37, ptr %36, align 8
  store i32 1, ptr %10, align 4
  br label %86

38:                                               ; preds = %3
  call void @llvm.lifetime.start.p0(i64 16, ptr %11) #10
  %39 = load ptr, ptr %7, align 8, !tbaa !76
  %40 = load ptr, ptr %6, align 8, !tbaa !25
  %41 = load ptr, ptr %8, align 8, !tbaa !76
  %42 = call { i64, ptr } %39(ptr noundef %40, ptr noundef %41)
  %43 = getelementptr inbounds nuw { i64, ptr }, ptr %11, i32 0, i32 0
  %44 = extractvalue { i64, ptr } %42, 0
  store i64 %44, ptr %43, align 8
  %45 = getelementptr inbounds nuw { i64, ptr }, ptr %11, i32 0, i32 1
  %46 = extractvalue { i64, ptr } %42, 1
  store ptr %46, ptr %45, align 8
  %47 = getelementptr inbounds nuw { i64, ptr }, ptr %11, i32 0, i32 0
  %48 = load i64, ptr %47, align 8
  %49 = getelementptr inbounds nuw { i64, ptr }, ptr %11, i32 0, i32 1
  %50 = load ptr, ptr %49, align 8
  %51 = call i32 @jv_is_valid(i64 %48, ptr %50)
  %52 = icmp ne i32 %51, 0
  br i1 %52, label %69, label %53

53:                                               ; preds = %38
  %54 = getelementptr inbounds nuw { i64, ptr }, ptr %11, i32 0, i32 0
  %55 = load i64, ptr %54, align 8
  %56 = getelementptr inbounds nuw { i64, ptr }, ptr %11, i32 0, i32 1
  %57 = load ptr, ptr %56, align 8
  %58 = call { i64, ptr } @jv_copy(i64 %55, ptr %57)
  %59 = getelementptr inbounds nuw { i64, ptr }, ptr %12, i32 0, i32 0
  %60 = extractvalue { i64, ptr } %58, 0
  store i64 %60, ptr %59, align 8
  %61 = getelementptr inbounds nuw { i64, ptr }, ptr %12, i32 0, i32 1
  %62 = extractvalue { i64, ptr } %58, 1
  store ptr %62, ptr %61, align 8
  %63 = getelementptr inbounds nuw { i64, ptr }, ptr %12, i32 0, i32 0
  %64 = load i64, ptr %63, align 8
  %65 = getelementptr inbounds nuw { i64, ptr }, ptr %12, i32 0, i32 1
  %66 = load ptr, ptr %65, align 8
  %67 = call i32 @jv_invalid_has_msg(i64 %64, ptr %66)
  %68 = icmp ne i32 %67, 0
  br i1 %68, label %69, label %70

69:                                               ; preds = %53, %38
  call void @llvm.memcpy.p0.p0.i64(ptr align 8 %4, ptr align 8 %11, i64 16, i1 false), !tbaa.struct !4
  store i32 1, ptr %10, align 4
  br label %85

70:                                               ; preds = %53
  %71 = call { i64, ptr } @jv_string(ptr noundef @.str.217)
  %72 = getelementptr inbounds nuw { i64, ptr }, ptr %13, i32 0, i32 0
  %73 = extractvalue { i64, ptr } %71, 0
  store i64 %73, ptr %72, align 8
  %74 = getelementptr inbounds nuw { i64, ptr }, ptr %13, i32 0, i32 1
  %75 = extractvalue { i64, ptr } %71, 1
  store ptr %75, ptr %74, align 8
  %76 = getelementptr inbounds nuw { i64, ptr }, ptr %13, i32 0, i32 0
  %77 = load i64, ptr %76, align 8
  %78 = getelementptr inbounds nuw { i64, ptr }, ptr %13, i32 0, i32 1
  %79 = load ptr, ptr %78, align 8
  %80 = call { i64, ptr } @jv_invalid_with_msg(i64 %77, ptr %79)
  %81 = getelementptr inbounds nuw { i64, ptr }, ptr %4, i32 0, i32 0
  %82 = extractvalue { i64, ptr } %80, 0
  store i64 %82, ptr %81, align 8
  %83 = getelementptr inbounds nuw { i64, ptr }, ptr %4, i32 0, i32 1
  %84 = extractvalue { i64, ptr } %80, 1
  store ptr %84, ptr %83, align 8
  store i32 1, ptr %10, align 4
  br label %85

85:                                               ; preds = %70, %69
  call void @llvm.lifetime.end.p0(i64 16, ptr %11) #10
  br label %86

86:                                               ; preds = %85, %23
  call void @llvm.lifetime.end.p0(i64 8, ptr %8) #10
  call void @llvm.lifetime.end.p0(i64 8, ptr %7) #10
  %87 = load { i64, ptr }, ptr %4, align 8
  ret { i64, ptr } %87
}