; Function Attrs: nounwind uwtable
define internal { i64, ptr } @f_input(ptr noundef %0, i64 %1, ptr %2) #0 {
  %4 = alloca ptr, align 8
  %5 = alloca ptr, align 8
  tail call void @jv_free(i64 %1, ptr %2) #14
  call void @llvm.lifetime.start.p0(i64 8, ptr nonnull %4) #14
  call void @llvm.lifetime.start.p0(i64 8, ptr nonnull %5) #14
  call void @jq_get_input_cb(ptr noundef %0, ptr noundef nonnull %4, ptr noundef nonnull %5) #14
  %6 = load ptr, ptr %4, align 8, !tbaa !56
  %7 = icmp eq ptr %6, null
  br i1 %7, label %.sink.split, label %8

8:                                                ; preds = %3
  %9 = load ptr, ptr %5, align 8, !tbaa !56
  %10 = call { i64, ptr } %6(ptr noundef %0, ptr noundef %9) #14
  %11 = extractvalue { i64, ptr } %10, 0
  %12 = extractvalue { i64, ptr } %10, 1
  %13 = call i32 @jv_get_kind(i64 %11, ptr %12) #14
  %.not13 = icmp eq i32 %13, 0
  br i1 %.not13, label %14, label %23

14:                                               ; preds = %8
  %15 = call { i64, ptr } @jv_copy(i64 %11, ptr %12) #14
  %16 = extractvalue { i64, ptr } %15, 0
  %17 = extractvalue { i64, ptr } %15, 1
  %18 = call i32 @jv_invalid_has_msg(i64 %16, ptr %17) #14
  %.not12 = icmp eq i32 %18, 0
  br i1 %.not12, label %.sink.split, label %23

.sink.split:                                      ; preds = %14, %3
  %19 = call { i64, ptr } @jv_string(ptr noundef nonnull @.str.217) #14
  %20 = extractvalue { i64, ptr } %19, 0
  %21 = extractvalue { i64, ptr } %19, 1
  %22 = call { i64, ptr } @jv_invalid_with_msg(i64 %20, ptr %21) #14
  br label %23

23:                                               ; preds = %.sink.split, %14, %8
  %.fca.1.insert.merged = phi { i64, ptr } [ %10, %14 ], [ %10, %8 ], [ %22, %.sink.split ]
  call void @llvm.lifetime.end.p0(i64 8, ptr nonnull %5) #14
  call void @llvm.lifetime.end.p0(i64 8, ptr nonnull %4) #14
  ret { i64, ptr } %.fca.1.insert.merged
}